target datalayout = "e-m:e-p270:32:32-p271:32:32-p272:64:64-i64:64-i128:128-f80:128-n8:16:32:64-S128"
target triple = "x86_64-pc-linux-gnu"

%struct.anon = type { i64, double, double, double, double, double, double, double, double, double, double, double }

; Function Attrs: nounwind uwtable
define internal i32 @SetIC(ptr noundef %0, ptr noundef %1) #0 {
  %3 = alloca ptr, align 8
  %4 = alloca ptr, align 8
  %5 = alloca ptr, align 8
  %6 = alloca i64, align 8
  %7 = alloca double, align 8
  %8 = alloca double, align 8
  %9 = alloca double, align 8
  %10 = alloca double, align 8
  %11 = alloca ptr, align 8
  %12 = alloca i64, align 8
  store ptr %0, ptr %3, align 8, !tbaa !15
  store ptr %1, ptr %4, align 8, !tbaa !17
  call void @llvm.lifetime.start.p0(i64 8, ptr %5) #8
  %13 = load ptr, ptr %4, align 8, !tbaa !17
  store ptr %13, ptr %5, align 8, !tbaa !17
  call void @llvm.lifetime.start.p0(i64 8, ptr %6) #8
  %14 = load ptr, ptr %5, align 8, !tbaa !17
  %15 = getelementptr inbounds nuw %struct.anon, ptr %14, i32 0, i32 0
  %16 = load i64, ptr %15, align 8, !tbaa !34
  store i64 %16, ptr %6, align 8, !tbaa !13
  call void @llvm.lifetime.start.p0(i64 8, ptr %7) #8
  %17 = load ptr, ptr %5, align 8, !tbaa !17
  %18 = getelementptr inbounds nuw %struct.anon, ptr %17, i32 0, i32 2
  %19 = load double, ptr %18, align 8, !tbaa !36
  store double %19, ptr %7, align 8, !tbaa !11
  call void @llvm.lifetime.start.p0(i64 8, ptr %8) #8
  %20 = load ptr, ptr %5, align 8, !tbaa !17
  %21 = getelementptr inbounds nuw %struct.anon, ptr %20, i32 0, i32 3
  %22 = load double, ptr %21, align 8, !tbaa !37
  store double %22, ptr %8, align 8, !tbaa !11
  call void @llvm.lifetime.start.p0(i64 8, ptr %9) #8
  %23 = load ptr, ptr %5, align 8, !tbaa !17
  %24 = getelementptr inbounds nuw %struct.anon, ptr %23, i32 0, i32 1
  %25 = load double, ptr %24, align 8, !tbaa !46
  store double %25, ptr %9, align 8, !tbaa !11
  call void @llvm.lifetime.start.p0(i64 8, ptr %10) #8
  %26 = load ptr, ptr %5, align 8, !tbaa !17
  %27 = getelementptr inbounds nuw %struct.anon, ptr %26, i32 0, i32 4
  %28 = load double, ptr %27, align 8, !tbaa !45
  store double %28, ptr %10, align 8, !tbaa !11
  call void @llvm.lifetime.start.p0(i64 8, ptr %11) #8
  store ptr null, ptr %11, align 8, !tbaa !28
  call void @llvm.lifetime.start.p0(i64 8, ptr %12) #8
  %29 = load ptr, ptr %3, align 8, !tbaa !15
  %30 = call ptr @N_VGetArrayPointer(ptr noundef %29)
  store ptr %30, ptr %11, align 8, !tbaa !28
  store i64 0, ptr %12, align 8, !tbaa !13
  br label %31

31:                                               ; preds = %80, %2
  %32 = load i64, ptr %12, align 8, !tbaa !13
  %33 = load i64, ptr %6, align 8, !tbaa !13
  %34 = icmp slt i64 %32, %33
  br i1 %34, label %35, label %83

35:                                               ; preds = %31
  %36 = load double, ptr %7, align 8, !tbaa !11
  %37 = load double, ptr %10, align 8, !tbaa !11
  %38 = load i64, ptr %12, align 8, !tbaa !13
  %39 = sitofp i64 %38 to double
  %40 = fmul double %37, %39
  %41 = load double, ptr %9, align 8, !tbaa !11
  %42 = fmul double %40, %41
  %43 = call double @sin(double noundef %42) #8, !tbaa !4
  %44 = call double @llvm.fmuladd.f64(double 1.000000e-01, double %43, double %36)
  %45 = load ptr, ptr %11, align 8, !tbaa !28
  %46 = load i64, ptr %12, align 8, !tbaa !13
  %47 = mul nsw i64 3, %46
  %48 = add nsw i64 %47, 0
  %49 = getelementptr inbounds double, ptr %45, i64 %48
  store double %44, ptr %49, align 8, !tbaa !11
  %50 = load double, ptr %8, align 8, !tbaa !11
  %51 = load double, ptr %7, align 8, !tbaa !11
  %52 = fdiv double %50, %51
  %53 = load double, ptr %10, align 8, !tbaa !11
  %54 = load i64, ptr %12, align 8, !tbaa !13
  %55 = sitofp i64 %54 to double
  %56 = fmul double %53, %55
  %57 = load double, ptr %9, align 8, !tbaa !11
  %58 = fmul double %56, %57
  %59 = call double @sin(double noundef %58) #8, !tbaa !4
  %60 = call double @llvm.fmuladd.f64(double 1.000000e-01, double %59, double %52)
  %61 = load ptr, ptr %11, align 8, !tbaa !28
  %62 = load i64, ptr %12, align 8, !tbaa !13
  %63 = mul nsw i64 3, %62
  %64 = add nsw i64 %63, 1
  %65 = getelementptr inbounds double, ptr %61, i64 %64
  store double %60, ptr %65, align 8, !tbaa !11
  %66 = load double, ptr %8, align 8, !tbaa !11
  %67 = load double, ptr %10, align 8, !tbaa !11
  %68 = load i64, ptr %12, align 8, !tbaa !13
  %69 = sitofp i64 %68 to double
  %70 = fmul double %67, %69
  %71 = load double, ptr %9, align 8, !tbaa !11
  %72 = fmul double %70, %71
  %73 = call double @sin(double noundef %72) #8, !tbaa !4
  %74 = call double @llvm.fmuladd.f64(double 1.000000e-01, double %73, double %66)
  %75 = load ptr, ptr %11, align 8, !tbaa !28
  %76 = load i64, ptr %12, align 8, !tbaa !13
  %77 = mul nsw i64 3, %76
  %78 = add nsw i64 %77, 2
  %79 = getelementptr inbounds double, ptr %75, i64 %78
  store double %74, ptr %79, align 8, !tbaa !11
  br label %80

80:                                               ; preds = %35
  %81 = load i64, ptr %12, align 8, !tbaa !13
  %82 = add nsw i64 %81, 1
  store i64 %82, ptr %12, align 8, !tbaa !13
  br label %31

83:                                               ; preds = %31
  call void @llvm.lifetime.end.p0(i64 8, ptr %12) #8
  call void @llvm.lifetime.end.p0(i64 8, ptr %11) #8
  call void @llvm.lifetime.end.p0(i64 8, ptr %10) #8
  call void @llvm.lifetime.end.p0(i64 8, ptr %9) #8
  call void @llvm.lifetime.end.p0(i64 8, ptr %8) #8
  call void @llvm.lifetime.end.p0(i64 8, ptr %7) #8
  call void @llvm.lifetime.end.p0(i64 8, ptr %6) #8
  call void @llvm.lifetime.end.p0(i64 8, ptr %5) #8
  ret i32 0
}