; Function Attrs: nounwind uwtable
define internal fastcc void @SetIC(ptr noundef %0, ptr noundef readonly captures(none) %1) unnamed_addr #0 {
  %3 = load i64, ptr %1, align 8, !tbaa !16
  %4 = getelementptr inbounds nuw i8, ptr %1, i64 16
  %5 = load double, ptr %4, align 8, !tbaa !20
  %6 = getelementptr inbounds nuw i8, ptr %1, i64 24
  %7 = load double, ptr %6, align 8, !tbaa !21
  %8 = getelementptr inbounds nuw i8, ptr %1, i64 8
  %9 = load double, ptr %8, align 8, !tbaa !30
  %10 = getelementptr inbounds nuw i8, ptr %1, i64 32
  %11 = load double, ptr %10, align 8, !tbaa !29
  %12 = tail call ptr @N_VGetArrayPointer(ptr noundef %0) #16
  %13 = icmp sgt i64 %3, 0
  br i1 %13, label %.lr.ph, label %._crit_edge

.lr.ph:                                           ; preds = %2
  %14 = fdiv double %7, %5
  br label %15

15:                                               ; preds = %.lr.ph, %15
  %.028 = phi i64 [ 0, %.lr.ph ], [ %28, %15 ]
  %16 = uitofp nneg i64 %.028 to double
  %17 = fmul double %11, %16
  %18 = fmul double %9, %17
  %19 = tail call double @sin(double noundef %18) #16, !tbaa !44
  %20 = tail call double @llvm.fmuladd.f64(double %19, double 1.000000e-01, double %5)
  %.idx = mul nuw nsw i64 %.028, 24
  %21 = getelementptr inbounds nuw i8, ptr %12, i64 %.idx
  store double %20, ptr %21, align 8, !tbaa !31
  %22 = tail call double @sin(double noundef %18) #16, !tbaa !44
  %23 = tail call double @llvm.fmuladd.f64(double %22, double 1.000000e-01, double %14)
  %24 = getelementptr inbounds nuw i8, ptr %21, i64 8
  store double %23, ptr %24, align 8, !tbaa !31
  %25 = tail call double @sin(double noundef %18) #16, !tbaa !44
  %26 = tail call double @llvm.fmuladd.f64(double %25, double 1.000000e-01, double %7)
  %27 = getelementptr inbounds nuw i8, ptr %21, i64 16
  store double %26, ptr %27, align 8, !tbaa !31
  %28 = add nuw nsw i64 %.028, 1
  %exitcond.not = icmp eq i64 %28, %3
  br i1 %exitcond.not, label %._crit_edge, label %15

._crit_edge:                                      ; preds = %15, %2
  ret void
}